target datalayout = "e-m:e-p270:32:32-p271:32:32-p272:64:64-i64:64-i128:128-f80:128-n8:16:32:64-S128"
target triple = "x86_64-pc-linux-gnu"

@bio_err = external global ptr, align 8
@.str.103 = private unnamed_addr constant [26 x i8] c"../openssl/apps/pkeyutl.c\00", align 1
@.str.116 = private unnamed_addr constant [14 x i8] c"buffer output\00", align 1
@.str.120 = private unnamed_addr constant [6 x i8] c"UNDEF\00", align 1
@.str.130 = private unnamed_addr constant [60 x i8] c"Error: unable to determine file size for oneshot operation\0A\00", align 1
@.str.131 = private unnamed_addr constant [27 x i8] c"oneshot sign/verify buffer\00", align 1
@.str.132 = private unnamed_addr constant [30 x i8] c"Error reading raw input data\0A\00", align 1
@.str.133 = private unnamed_addr constant [32 x i8] c"Error verifying raw input data\0A\00", align 1
@.str.134 = private unnamed_addr constant [30 x i8] c"Error signing raw input data\0A\00", align 1

; Function Attrs: nounwind uwtable
define internal i32 @only_nomd(ptr noundef %0) #0 {
  %2 = alloca ptr, align 8
  %3 = alloca [100 x i8], align 16
  %4 = alloca i32, align 4
  store ptr %0, ptr %2, align 8, !tbaa !19
  call void @llvm.lifetime.start.p0(i64 100, ptr %3) #7
  call void @llvm.lifetime.start.p0(i64 4, ptr %4) #7
  %5 = load ptr, ptr %2, align 8, !tbaa !19
  %6 = getelementptr inbounds [100 x i8], ptr %3, i64 0, i64 0
  %7 = call i32 @EVP_PKEY_get_default_digest_name(ptr noundef %5, ptr noundef %6, i64 noundef 100)
  store i32 %7, ptr %4, align 4, !tbaa !4
  %8 = load i32, ptr %4, align 4, !tbaa !4
  %9 = icmp eq i32 %8, 2
  br i1 %9, label %10, label %14

10:                                               ; preds = %1
  %11 = getelementptr inbounds [100 x i8], ptr %3, i64 0, i64 0
  %12 = call i32 @strcmp(ptr noundef %11, ptr noundef @.str.120) #8
  %13 = icmp eq i32 %12, 0
  br label %14

14:                                               ; preds = %10, %1
  %15 = phi i1 [ false, %1 ], [ %13, %10 ]
  %16 = zext i1 %15 to i32
  call void @llvm.lifetime.end.p0(i64 4, ptr %4) #7
  call void @llvm.lifetime.end.p0(i64 100, ptr %3) #7
  ret i32 %16
}

; Function Attrs: nounwind uwtable
define internal i32 @do_raw_keyop(i32 noundef %0, ptr noundef %1, ptr noundef %2, ptr noundef %3, i32 noundef %4, ptr noundef %5, i32 noundef %6, ptr noundef %7, ptr noundef %8) #0 {
  %10 = alloca i32, align 4
  %11 = alloca ptr, align 8
  %12 = alloca ptr, align 8
  %13 = alloca ptr, align 8
  %14 = alloca i32, align 4
  %15 = alloca ptr, align 8
  %16 = alloca i32, align 4
  %17 = alloca ptr, align 8
  %18 = alloca ptr, align 8
  %19 = alloca i32, align 4
  %20 = alloca [2048 x i8], align 16
  %21 = alloca ptr, align 8
  %22 = alloca i32, align 4
  store i32 %0, ptr %10, align 4, !tbaa !4
  store ptr %1, ptr %11, align 8, !tbaa !28
  store ptr %2, ptr %12, align 8, !tbaa !19
  store ptr %3, ptr %13, align 8, !tbaa !13
  store i32 %4, ptr %14, align 4, !tbaa !4
  store ptr %5, ptr %15, align 8, !tbaa !21
  store i32 %6, ptr %16, align 4, !tbaa !4
  store ptr %7, ptr %17, align 8, !tbaa !8
  store ptr %8, ptr %18, align 8, !tbaa !46
  call void @llvm.lifetime.start.p0(i64 4, ptr %19) #7
  store i32 0, ptr %19, align 4, !tbaa !4
  call void @llvm.lifetime.start.p0(i64 2048, ptr %20) #7
  call void @llvm.lifetime.start.p0(i64 8, ptr %21) #7
  store ptr null, ptr %21, align 8, !tbaa !21
  call void @llvm.lifetime.start.p0(i64 4, ptr %22) #7
  store i32 0, ptr %22, align 4, !tbaa !4
  %23 = load ptr, ptr %12, align 8, !tbaa !19
  %24 = call i32 @only_nomd(ptr noundef %23)
  %25 = icmp ne i32 %24, 0
  br i1 %25, label %26, label %95

26:                                               ; preds = %9
  %27 = load i32, ptr %14, align 4, !tbaa !4
  %28 = icmp slt i32 %27, 0
  br i1 %28, label %29, label %32

29:                                               ; preds = %26
  %30 = load ptr, ptr @bio_err, align 8, !tbaa !13
  %31 = call i32 (ptr, ptr, ...) @BIO_printf(ptr noundef %30, ptr noundef @.str.130)
  br label %176

32:                                               ; preds = %26
  %33 = load i32, ptr %14, align 4, !tbaa !4
  %34 = sext i32 %33 to i64
  %35 = call ptr @app_malloc(i64 noundef %34, ptr noundef @.str.131)
  store ptr %35, ptr %21, align 8, !tbaa !21
  %36 = load i32, ptr %10, align 4, !tbaa !4
  switch i32 %36, label %94 [
    i32 32, label %37
    i32 16, label %57
  ]

37:                                               ; preds = %32
  %38 = load ptr, ptr %13, align 8, !tbaa !13
  %39 = load ptr, ptr %21, align 8, !tbaa !21
  %40 = load i32, ptr %14, align 4, !tbaa !4
  %41 = call i32 @BIO_read(ptr noundef %38, ptr noundef %39, i32 noundef %40)
  store i32 %41, ptr %22, align 4, !tbaa !4
  %42 = load i32, ptr %22, align 4, !tbaa !4
  %43 = load i32, ptr %14, align 4, !tbaa !4
  %44 = icmp ne i32 %42, %43
  br i1 %44, label %45, label %48

45:                                               ; preds = %37
  %46 = load ptr, ptr @bio_err, align 8, !tbaa !13
  %47 = call i32 (ptr, ptr, ...) @BIO_printf(ptr noundef %46, ptr noundef @.str.132)
  br label %176

48:                                               ; preds = %37
  %49 = load ptr, ptr %11, align 8, !tbaa !28
  %50 = load ptr, ptr %15, align 8, !tbaa !21
  %51 = load i32, ptr %16, align 4, !tbaa !4
  %52 = sext i32 %51 to i64
  %53 = load ptr, ptr %21, align 8, !tbaa !21
  %54 = load i32, ptr %22, align 4, !tbaa !4
  %55 = sext i32 %54 to i64
  %56 = call i32 @EVP_DigestVerify(ptr noundef %49, ptr noundef %50, i64 noundef %52, ptr noundef %53, i64 noundef %55)
  store i32 %56, ptr %19, align 4, !tbaa !4
  br label %94

57:                                               ; preds = %32
  %58 = load ptr, ptr %13, align 8, !tbaa !13
  %59 = load ptr, ptr %21, align 8, !tbaa !21
  %60 = load i32, ptr %14, align 4, !tbaa !4
  %61 = call i32 @BIO_read(ptr noundef %58, ptr noundef %59, i32 noundef %60)
  store i32 %61, ptr %22, align 4, !tbaa !4
  %62 = load i32, ptr %22, align 4, !tbaa !4
  %63 = load i32, ptr %14, align 4, !tbaa !4
  %64 = icmp ne i32 %62, %63
  br i1 %64, label %65, label %68

65:                                               ; preds = %57
  %66 = load ptr, ptr @bio_err, align 8, !tbaa !13
  %67 = call i32 (ptr, ptr, ...) @BIO_printf(ptr noundef %66, ptr noundef @.str.132)
  br label %176

68:                                               ; preds = %57
  %69 = load ptr, ptr %11, align 8, !tbaa !28
  %70 = load ptr, ptr %18, align 8, !tbaa !46
  %71 = load ptr, ptr %21, align 8, !tbaa !21
  %72 = load i32, ptr %22, align 4, !tbaa !4
  %73 = sext i32 %72 to i64
  %74 = call i32 @EVP_DigestSign(ptr noundef %69, ptr noundef null, ptr noundef %70, ptr noundef %71, i64 noundef %73)
  store i32 %74, ptr %19, align 4, !tbaa !4
  %75 = load i32, ptr %19, align 4, !tbaa !4
  %76 = icmp eq i32 %75, 1
  br i1 %76, label %77, label %93

77:                                               ; preds = %68
  %78 = load ptr, ptr %17, align 8, !tbaa !8
  %79 = icmp ne ptr %78, null
  br i1 %79, label %80, label %93

80:                                               ; preds = %77
  %81 = load ptr, ptr %18, align 8, !tbaa !46
  %82 = load i64, ptr %81, align 8, !tbaa !24
  %83 = call ptr @app_malloc(i64 noundef %82, ptr noundef @.str.116)
  %84 = load ptr, ptr %17, align 8, !tbaa !8
  store ptr %83, ptr %84, align 8, !tbaa !21
  %85 = load ptr, ptr %11, align 8, !tbaa !28
  %86 = load ptr, ptr %17, align 8, !tbaa !8
  %87 = load ptr, ptr %86, align 8, !tbaa !21
  %88 = load ptr, ptr %18, align 8, !tbaa !46
  %89 = load ptr, ptr %21, align 8, !tbaa !21
  %90 = load i32, ptr %22, align 4, !tbaa !4
  %91 = sext i32 %90 to i64
  %92 = call i32 @EVP_DigestSign(ptr noundef %85, ptr noundef %87, ptr noundef %88, ptr noundef %89, i64 noundef %91)
  store i32 %92, ptr %19, align 4, !tbaa !4
  br label %93

93:                                               ; preds = %80, %77, %68
  br label %94

94:                                               ; preds = %32, %93, %48
  br label %176

95:                                               ; preds = %9
  %96 = load i32, ptr %10, align 4, !tbaa !4
  switch i32 %96, label %175 [
    i32 32, label %97
    i32 16, label %129
  ]

97:                                               ; preds = %95
  br label %98

98:                                               ; preds = %122, %97
  %99 = load ptr, ptr %13, align 8, !tbaa !13
  %100 = getelementptr inbounds [2048 x i8], ptr %20, i64 0, i64 0
  %101 = call i32 @BIO_read(ptr noundef %99, ptr noundef %100, i32 noundef 2048)
  store i32 %101, ptr %22, align 4, !tbaa !4
  %102 = load i32, ptr %22, align 4, !tbaa !4
  %103 = icmp eq i32 %102, 0
  br i1 %103, label %104, label %105

104:                                              ; preds = %98
  br label %123

105:                                              ; preds = %98
  %106 = load i32, ptr %22, align 4, !tbaa !4
  %107 = icmp slt i32 %106, 0
  br i1 %107, label %108, label %111

108:                                              ; preds = %105
  %109 = load ptr, ptr @bio_err, align 8, !tbaa !13
  %110 = call i32 (ptr, ptr, ...) @BIO_printf(ptr noundef %109, ptr noundef @.str.132)
  br label %176

111:                                              ; preds = %105
  %112 = load ptr, ptr %11, align 8, !tbaa !28
  %113 = getelementptr inbounds [2048 x i8], ptr %20, i64 0, i64 0
  %114 = load i32, ptr %22, align 4, !tbaa !4
  %115 = sext i32 %114 to i64
  %116 = call i32 @EVP_DigestVerifyUpdate(ptr noundef %112, ptr noundef %113, i64 noundef %115)
  store i32 %116, ptr %19, align 4, !tbaa !4
  %117 = load i32, ptr %19, align 4, !tbaa !4
  %118 = icmp ne i32 %117, 1
  br i1 %118, label %119, label %122

119:                                              ; preds = %111
  %120 = load ptr, ptr @bio_err, align 8, !tbaa !13
  %121 = call i32 (ptr, ptr, ...) @BIO_printf(ptr noundef %120, ptr noundef @.str.133)
  br label %176

122:                                              ; preds = %111
  br label %98

123:                                              ; preds = %104
  %124 = load ptr, ptr %11, align 8, !tbaa !28
  %125 = load ptr, ptr %15, align 8, !tbaa !21
  %126 = load i32, ptr %16, align 4, !tbaa !4
  %127 = sext i32 %126 to i64
  %128 = call i32 @EVP_DigestVerifyFinal(ptr noundef %124, ptr noundef %125, i64 noundef %127)
  store i32 %128, ptr %19, align 4, !tbaa !4
  br label %175

129:                                              ; preds = %95
  br label %130

130:                                              ; preds = %154, %129
  %131 = load ptr, ptr %13, align 8, !tbaa !13
  %132 = getelementptr inbounds [2048 x i8], ptr %20, i64 0, i64 0
  %133 = call i32 @BIO_read(ptr noundef %131, ptr noundef %132, i32 noundef 2048)
  store i32 %133, ptr %22, align 4, !tbaa !4
  %134 = load i32, ptr %22, align 4, !tbaa !4
  %135 = icmp eq i32 %134, 0
  br i1 %135, label %136, label %137

136:                                              ; preds = %130
  br label %155

137:                                              ; preds = %130
  %138 = load i32, ptr %22, align 4, !tbaa !4
  %139 = icmp slt i32 %138, 0
  br i1 %139, label %140, label %143

140:                                              ; preds = %137
  %141 = load ptr, ptr @bio_err, align 8, !tbaa !13
  %142 = call i32 (ptr, ptr, ...) @BIO_printf(ptr noundef %141, ptr noundef @.str.132)
  br label %176

143:                                              ; preds = %137
  %144 = load ptr, ptr %11, align 8, !tbaa !28
  %145 = getelementptr inbounds [2048 x i8], ptr %20, i64 0, i64 0
  %146 = load i32, ptr %22, align 4, !tbaa !4
  %147 = sext i32 %146 to i64
  %148 = call i32 @EVP_DigestSignUpdate(ptr noundef %144, ptr noundef %145, i64 noundef %147)
  store i32 %148, ptr %19, align 4, !tbaa !4
  %149 = load i32, ptr %19, align 4, !tbaa !4
  %150 = icmp ne i32 %149, 1
  br i1 %150, label %151, label %154

151:                                              ; preds = %143
  %152 = load ptr, ptr @bio_err, align 8, !tbaa !13
  %153 = call i32 (ptr, ptr, ...) @BIO_printf(ptr noundef %152, ptr noundef @.str.134)
  br label %176

154:                                              ; preds = %143
  br label %130

155:                                              ; preds = %136
  %156 = load ptr, ptr %11, align 8, !tbaa !28
  %157 = load ptr, ptr %18, align 8, !tbaa !46
  %158 = call i32 @EVP_DigestSignFinal(ptr noundef %156, ptr noundef null, ptr noundef %157)
  store i32 %158, ptr %19, align 4, !tbaa !4
  %159 = load i32, ptr %19, align 4, !tbaa !4
  %160 = icmp eq i32 %159, 1
  br i1 %160, label %161, label %174

161:                                              ; preds = %155
  %162 = load ptr, ptr %17, align 8, !tbaa !8
  %163 = icmp ne ptr %162, null
  br i1 %163, label %164, label %174

164:                                              ; preds = %161
  %165 = load ptr, ptr %18, align 8, !tbaa !46
  %166 = load i64, ptr %165, align 8, !tbaa !24
  %167 = call ptr @app_malloc(i64 noundef %166, ptr noundef @.str.116)
  %168 = load ptr, ptr %17, align 8, !tbaa !8
  store ptr %167, ptr %168, align 8, !tbaa !21
  %169 = load ptr, ptr %11, align 8, !tbaa !28
  %170 = load ptr, ptr %17, align 8, !tbaa !8
  %171 = load ptr, ptr %170, align 8, !tbaa !21
  %172 = load ptr, ptr %18, align 8, !tbaa !46
  %173 = call i32 @EVP_DigestSignFinal(ptr noundef %169, ptr noundef %171, ptr noundef %172)
  store i32 %173, ptr %19, align 4, !tbaa !4
  br label %174

174:                                              ; preds = %164, %161, %155
  br label %175

175:                                              ; preds = %95, %174, %123
  br label %176

176:                                              ; preds = %175, %151, %140, %119, %108, %94, %65, %45, %29
  %177 = load ptr, ptr %21, align 8, !tbaa !21
  call void @CRYPTO_free(ptr noundef %177, ptr noundef @.str.103, i32 noundef 919)
  %178 = load i32, ptr %19, align 4, !tbaa !4
  call void @llvm.lifetime.end.p0(i64 4, ptr %22) #7
  call void @llvm.lifetime.end.p0(i64 8, ptr %21) #7
  call void @llvm.lifetime.end.p0(i64 2048, ptr %20) #7
  call void @llvm.lifetime.end.p0(i64 4, ptr %19) #7
  ret i32 %178
}