; Function Attrs: nounwind uwtable
define internal fastcc i32 @do_raw_keyop(i32 noundef range(i32 16, 8193) %0, ptr noundef %1, ptr noundef %2, ptr noundef %3, i32 noundef %4, ptr noundef %5, i32 noundef %6, ptr noundef writeonly captures(address_is_null) %7, ptr noundef %8) unnamed_addr #0 {
  %10 = alloca [100 x i8], align 16
  %11 = alloca [2048 x i8], align 16
  call void @llvm.lifetime.start.p0(i64 2048, ptr nonnull %11) #7
  call void @llvm.lifetime.start.p0(i64 100, ptr nonnull %10) #7
  %12 = call i32 @EVP_PKEY_get_default_digest_name(ptr noundef %2, ptr noundef nonnull %10, i64 noundef 100) #7
  %13 = icmp eq i32 %12, 2
  br i1 %13, label %only_nomd.exit, label %only_nomd.exit.thread

only_nomd.exit.thread:                            ; preds = %9
  call void @llvm.lifetime.end.p0(i64 100, ptr nonnull %10) #7
  br label %43

only_nomd.exit:                                   ; preds = %9
  %bcmp.i = call i32 @bcmp(ptr noundef nonnull dereferenceable(6) %10, ptr noundef nonnull dereferenceable(6) @.str.120, i64 6)
  %.not = icmp eq i32 %bcmp.i, 0
  call void @llvm.lifetime.end.p0(i64 100, ptr nonnull %10) #7
  br i1 %.not, label %14, label %43

14:                                               ; preds = %only_nomd.exit
  %15 = icmp slt i32 %4, 0
  br i1 %15, label %16, label %19

16:                                               ; preds = %14
  %17 = load ptr, ptr @bio_err, align 8, !tbaa !15
  %18 = call i32 (ptr, ptr, ...) @BIO_printf(ptr noundef %17, ptr noundef nonnull @.str.130) #7
  br label %81

19:                                               ; preds = %14
  %20 = zext nneg i32 %4 to i64
  %21 = call ptr @app_malloc(i64 noundef %20, ptr noundef nonnull @.str.131) #7
  switch i32 %0, label %81 [
    i32 32, label %22
    i32 16, label %30
  ]

22:                                               ; preds = %19
  %23 = call i32 @BIO_read(ptr noundef %3, ptr noundef %21, i32 noundef %4) #7
  %.not76 = icmp eq i32 %23, %4
  br i1 %.not76, label %27, label %24

24:                                               ; preds = %22
  %25 = load ptr, ptr @bio_err, align 8, !tbaa !15
  %26 = call i32 (ptr, ptr, ...) @BIO_printf(ptr noundef %25, ptr noundef nonnull @.str.132) #7
  br label %81

27:                                               ; preds = %22
  %28 = sext i32 %6 to i64
  %29 = call i32 @EVP_DigestVerify(ptr noundef %1, ptr noundef %5, i64 noundef %28, ptr noundef %21, i64 noundef %20) #7
  br label %81

30:                                               ; preds = %19
  %31 = call i32 @BIO_read(ptr noundef %3, ptr noundef %21, i32 noundef %4) #7
  %.not75 = icmp eq i32 %31, %4
  br i1 %.not75, label %35, label %32

32:                                               ; preds = %30
  %33 = load ptr, ptr @bio_err, align 8, !tbaa !15
  %34 = call i32 (ptr, ptr, ...) @BIO_printf(ptr noundef %33, ptr noundef nonnull @.str.132) #7
  br label %81

35:                                               ; preds = %30
  %36 = call i32 @EVP_DigestSign(ptr noundef %1, ptr noundef null, ptr noundef %8, ptr noundef %21, i64 noundef %20) #7
  %37 = icmp eq i32 %36, 1
  %38 = icmp ne ptr %7, null
  %or.cond = and i1 %38, %37
  br i1 %or.cond, label %39, label %81

39:                                               ; preds = %35
  %40 = load i64, ptr %8, align 8, !tbaa !11
  %41 = call ptr @app_malloc(i64 noundef %40, ptr noundef nonnull @.str.116) #7
  store ptr %41, ptr %7, align 8, !tbaa !4
  %42 = call i32 @EVP_DigestSign(ptr noundef %1, ptr noundef %41, ptr noundef nonnull %8, ptr noundef %21, i64 noundef %20) #7
  br label %81

43:                                               ; preds = %only_nomd.exit.thread, %only_nomd.exit
  switch i32 %0, label %81 [
    i32 32, label %.preheader
    i32 16, label %.preheader78
  ]

.preheader:                                       ; preds = %43, %51
  %.1 = phi i32 [ 1, %51 ], [ 0, %43 ]
  %44 = call i32 @BIO_read(ptr noundef %3, ptr noundef nonnull %11, i32 noundef 2048) #7
  %45 = icmp eq i32 %44, 0
  br i1 %45, label %57, label %46

46:                                               ; preds = %.preheader
  %47 = icmp slt i32 %44, 0
  br i1 %47, label %48, label %51

48:                                               ; preds = %46
  %49 = load ptr, ptr @bio_err, align 8, !tbaa !15
  %50 = call i32 (ptr, ptr, ...) @BIO_printf(ptr noundef %49, ptr noundef nonnull @.str.132) #7
  br label %81

51:                                               ; preds = %46
  %52 = zext nneg i32 %44 to i64
  %53 = call i32 @EVP_DigestVerifyUpdate(ptr noundef %1, ptr noundef nonnull %11, i64 noundef %52) #7
  %.not74 = icmp eq i32 %53, 1
  br i1 %.not74, label %.preheader, label %54

54:                                               ; preds = %51
  %55 = load ptr, ptr @bio_err, align 8, !tbaa !15
  %56 = call i32 (ptr, ptr, ...) @BIO_printf(ptr noundef %55, ptr noundef nonnull @.str.133) #7
  br label %81

57:                                               ; preds = %.preheader
  %58 = sext i32 %6 to i64
  %59 = call i32 @EVP_DigestVerifyFinal(ptr noundef %1, ptr noundef %5, i64 noundef %58) #7
  br label %81

.preheader78:                                     ; preds = %43, %67
  %.2 = phi i32 [ 1, %67 ], [ 0, %43 ]
  %60 = call i32 @BIO_read(ptr noundef %3, ptr noundef nonnull %11, i32 noundef 2048) #7
  %61 = icmp eq i32 %60, 0
  br i1 %61, label %73, label %62

62:                                               ; preds = %.preheader78
  %63 = icmp slt i32 %60, 0
  br i1 %63, label %64, label %67

64:                                               ; preds = %62
  %65 = load ptr, ptr @bio_err, align 8, !tbaa !15
  %66 = call i32 (ptr, ptr, ...) @BIO_printf(ptr noundef %65, ptr noundef nonnull @.str.132) #7
  br label %81

67:                                               ; preds = %62
  %68 = zext nneg i32 %60 to i64
  %69 = call i32 @EVP_DigestSignUpdate(ptr noundef %1, ptr noundef nonnull %11, i64 noundef %68) #7
  %.not73 = icmp eq i32 %69, 1
  br i1 %.not73, label %.preheader78, label %70

70:                                               ; preds = %67
  %71 = load ptr, ptr @bio_err, align 8, !tbaa !15
  %72 = call i32 (ptr, ptr, ...) @BIO_printf(ptr noundef %71, ptr noundef nonnull @.str.134) #7
  br label %81

73:                                               ; preds = %.preheader78
  %74 = call i32 @EVP_DigestSignFinal(ptr noundef %1, ptr noundef null, ptr noundef %8) #7
  %75 = icmp eq i32 %74, 1
  %76 = icmp ne ptr %7, null
  %or.cond3 = and i1 %76, %75
  br i1 %or.cond3, label %77, label %81

77:                                               ; preds = %73
  %78 = load i64, ptr %8, align 8, !tbaa !11
  %79 = call ptr @app_malloc(i64 noundef %78, ptr noundef nonnull @.str.116) #7
  store ptr %79, ptr %7, align 8, !tbaa !4
  %80 = call i32 @EVP_DigestSignFinal(ptr noundef %1, ptr noundef %79, ptr noundef nonnull %8) #7
  br label %81

81:                                               ; preds = %43, %57, %77, %73, %19, %27, %39, %35, %70, %64, %54, %48, %32, %24, %16
  %.061 = phi i32 [ 0, %16 ], [ 0, %19 ], [ 0, %32 ], [ %42, %39 ], [ %36, %35 ], [ 0, %24 ], [ %29, %27 ], [ 0, %43 ], [ %80, %77 ], [ %74, %73 ], [ %.2, %64 ], [ %69, %70 ], [ %59, %57 ], [ %.1, %48 ], [ %53, %54 ]
  %.0 = phi ptr [ null, %16 ], [ %21, %19 ], [ %21, %32 ], [ %21, %39 ], [ %21, %35 ], [ %21, %24 ], [ %21, %27 ], [ null, %43 ], [ null, %77 ], [ null, %73 ], [ null, %64 ], [ null, %70 ], [ null, %57 ], [ null, %48 ], [ null, %54 ]
  call void @CRYPTO_free(ptr noundef %.0, ptr noundef nonnull @.str.103, i32 noundef 919) #7
  call void @llvm.lifetime.end.p0(i64 2048, ptr nonnull %11) #7
  ret i32 %.061
}